target datalayout = "e-m:e-p270:32:32-p271:32:32-p272:64:64-i64:64-i128:128-f80:128-n8:16:32:64-S128"
target triple = "x86_64-pc-linux-gnu"

%struct.Lpk_Fun_t_ = type { ptr, i32, i32, [32 x i32], i32, [16 x i32], [16 x i8], [0 x i32] }
%struct.Lpk_Man_t_ = type { ptr, ptr, ptr, i32, i32, i32, i32, [10000 x %struct.Lpk_Cut_t_], [10000 x i32], ptr, ptr, ptr, ptr, i32, i32, i32, [100 x i32], [100 x i32], ptr, ptr, ptr, ptr, ptr, ptr, ptr, [32 x i32], [5 x [16 x ptr]], [8 x ptr], ptr, i32, i32, i32, i32, i32, i32, i32, i32, i32, i32, i32, i32, i32, [17 x i32], i64, i64, i64, i64, i64, i64, i64, i64, i64, i64, i64, i64, i64 }
%struct.Lpk_Cut_t_ = type { i32, [2 x i32], float, i32, [100 x i32], [100 x i32] }
%struct.Abc_Ntk_t_ = type { i32, i32, ptr, ptr, ptr, ptr, ptr, ptr, ptr, ptr, ptr, ptr, ptr, [11 x i32], i32, i32, i32, i32, ptr, i32, ptr, ptr, i32, i32, i32, double, i32, %struct.Vec_Int_t_, ptr, ptr, ptr, ptr, ptr, float, i32, ptr, ptr, ptr, ptr, ptr, ptr, ptr, ptr, ptr, ptr, ptr, ptr, ptr, ptr, ptr, ptr, ptr, ptr, ptr, ptr, ptr, ptr }
%struct.Vec_Int_t_ = type { i32, i32, ptr }
%struct.Abc_Obj_t_ = type { ptr, ptr, i32, i32, %struct.Vec_Int_t_, %struct.Vec_Int_t_, %union.anon, %union.anon.0 }
%union.anon = type { ptr }
%union.anon.0 = type { ptr }
%struct.Vec_Ptr_t_ = type { i32, i32, ptr }
%struct.Hop_Man_t_ = type { ptr, ptr, ptr, ptr, %struct.Hop_Obj_t_, [6 x i32], i32, i32, ptr, i32, ptr, i32, i32, i32, ptr, ptr, ptr, i64, i64 }
%struct.Hop_Obj_t_ = type { %union.anon.1, %union.anon.2, ptr, ptr, i32, i32 }
%union.anon.1 = type { ptr }
%union.anon.2 = type { ptr }

; Function Attrs: inlinehint nounwind uwtable
define internal i32 @Kit_TruthWordNum(i32 noundef %0) #2 {
  %2 = alloca i32, align 4
  store i32 %0, ptr %2, align 4, !tbaa !26
  %3 = load i32, ptr %2, align 4, !tbaa !26
  %4 = icmp sle i32 %3, 5
  br i1 %4, label %5, label %6

5:                                                ; preds = %1
  br label %10

6:                                                ; preds = %1
  %7 = load i32, ptr %2, align 4, !tbaa !26
  %8 = sub nsw i32 %7, 5
  %9 = shl i32 1, %8
  br label %10

10:                                               ; preds = %6, %5
  %11 = phi i32 [ 1, %5 ], [ %9, %6 ]
  ret i32 %11
}

; Function Attrs: inlinehint nounwind uwtable
define internal ptr @Hop_ManPi(ptr noundef %0, i32 noundef %1) #2 {
  %3 = alloca ptr, align 8
  %4 = alloca i32, align 4
  store ptr %0, ptr %3, align 8, !tbaa !50
  store i32 %1, ptr %4, align 4, !tbaa !26
  %5 = load ptr, ptr %3, align 8, !tbaa !50
  %6 = getelementptr inbounds nuw %struct.Hop_Man_t_, ptr %5, i32 0, i32 0
  %7 = load ptr, ptr %6, align 8, !tbaa !56
  %8 = load i32, ptr %4, align 4, !tbaa !26
  %9 = call ptr @Vec_PtrEntry(ptr noundef %7, i32 noundef %8)
  ret ptr %9
}

; Function Attrs: inlinehint nounwind uwtable
define internal ptr @Hop_NotCond(ptr noundef %0, i32 noundef %1) #2 {
  %3 = alloca ptr, align 8
  %4 = alloca i32, align 4
  store ptr %0, ptr %3, align 8, !tbaa !48
  store i32 %1, ptr %4, align 4, !tbaa !26
  %5 = load ptr, ptr %3, align 8, !tbaa !48
  %6 = ptrtoint ptr %5 to i64
  %7 = load i32, ptr %4, align 4, !tbaa !26
  %8 = sext i32 %7 to i64
  %9 = xor i64 %6, %8
  %10 = inttoptr i64 %9 to ptr
  ret ptr %10
}

; Function Attrs: inlinehint nounwind uwtable
define internal ptr @Hop_ManConst1(ptr noundef %0) #2 {
  %2 = alloca ptr, align 8
  store ptr %0, ptr %2, align 8, !tbaa !50
  %3 = load ptr, ptr %2, align 8, !tbaa !50
  %4 = getelementptr inbounds nuw %struct.Hop_Man_t_, ptr %3, i32 0, i32 3
  %5 = load ptr, ptr %4, align 8, !tbaa !52
  ret ptr %5
}

; Function Attrs: inlinehint nounwind uwtable
define internal ptr @Lpk_FunTruth(ptr noundef %0, i32 noundef %1) #2 {
  %3 = alloca ptr, align 8
  %4 = alloca i32, align 4
  store ptr %0, ptr %3, align 8, !tbaa !12
  store i32 %1, ptr %4, align 4, !tbaa !26
  %5 = load ptr, ptr %3, align 8, !tbaa !12
  %6 = getelementptr inbounds nuw %struct.Lpk_Fun_t_, ptr %5, i32 0, i32 7
  %7 = getelementptr inbounds [0 x i32], ptr %6, i64 0, i64 0
  %8 = load ptr, ptr %3, align 8, !tbaa !12
  %9 = getelementptr inbounds nuw %struct.Lpk_Fun_t_, ptr %8, i32 0, i32 1
  %10 = load i32, ptr %9, align 8
  %11 = lshr i32 %10, 7
  %12 = and i32 %11, 31
  %13 = call i32 @Kit_TruthWordNum(i32 noundef %12)
  %14 = load i32, ptr %4, align 4, !tbaa !26
  %15 = mul nsw i32 %13, %14
  %16 = sext i32 %15 to i64
  %17 = getelementptr inbounds i32, ptr %7, i64 %16
  ret ptr %17
}

; Function Attrs: inlinehint nounwind uwtable
define internal void @Abc_ObjSetLevel(ptr noundef %0, i32 noundef %1) #2 {
  %3 = alloca ptr, align 8
  %4 = alloca i32, align 4
  store ptr %0, ptr %3, align 8, !tbaa !25
  store i32 %1, ptr %4, align 4, !tbaa !26
  %5 = load i32, ptr %4, align 4, !tbaa !26
  %6 = load ptr, ptr %3, align 8, !tbaa !25
  %7 = getelementptr inbounds nuw %struct.Abc_Obj_t_, ptr %6, i32 0, i32 3
  %8 = load i32, ptr %7, align 4
  %9 = and i32 %5, 1048575
  %10 = shl i32 %9, 12
  %11 = and i32 %8, 4095
  %12 = or i32 %11, %10
  store i32 %12, ptr %7, align 4
  ret void
}

; Function Attrs: inlinehint nounwind uwtable
define internal ptr @Abc_ObjRegular(ptr noundef %0) #2 {
  %2 = alloca ptr, align 8
  store ptr %0, ptr %2, align 8, !tbaa !25
  %3 = load ptr, ptr %2, align 8, !tbaa !25
  %4 = ptrtoint ptr %3 to i64
  %5 = and i64 %4, -2
  %6 = inttoptr i64 %5 to ptr
  ret ptr %6
}

; Function Attrs: inlinehint nounwind uwtable
define internal ptr @Vec_PtrEntry(ptr noundef %0, i32 noundef %1) #2 {
  %3 = alloca ptr, align 8
  %4 = alloca i32, align 4
  store ptr %0, ptr %3, align 8, !tbaa !10
  store i32 %1, ptr %4, align 4, !tbaa !26
  %5 = load ptr, ptr %3, align 8, !tbaa !10
  %6 = getelementptr inbounds nuw %struct.Vec_Ptr_t_, ptr %5, i32 0, i32 2
  %7 = load ptr, ptr %6, align 8, !tbaa !45
  %8 = load i32, ptr %4, align 4, !tbaa !26
  %9 = sext i32 %8 to i64
  %10 = getelementptr inbounds ptr, ptr %7, i64 %9
  %11 = load ptr, ptr %10, align 8, !tbaa !47
  ret ptr %11
}

; Function Attrs: inlinehint nounwind uwtable
define internal ptr @Abc_NtkCreateNode(ptr noundef %0) #2 {
  %2 = alloca ptr, align 8
  store ptr %0, ptr %2, align 8, !tbaa !8
  %3 = load ptr, ptr %2, align 8, !tbaa !8
  %4 = call ptr @Abc_NtkCreateObj(ptr noundef %3, i32 noundef 7)
  ret ptr %4
}

; Function Attrs: nounwind uwtable
define ptr @Lpk_ImplementFun(ptr noundef %0, ptr noundef %1, ptr noundef %2, ptr noundef %3) #0 {
  %5 = alloca ptr, align 8
  %6 = alloca ptr, align 8
  %7 = alloca ptr, align 8
  %8 = alloca ptr, align 8
  %9 = alloca ptr, align 8
  %10 = alloca ptr, align 8
  %11 = alloca ptr, align 8
  %12 = alloca i32, align 4
  %13 = alloca i32, align 4
  store ptr %0, ptr %6, align 8, !tbaa !3
  store ptr %1, ptr %7, align 8, !tbaa !8
  store ptr %2, ptr %8, align 8, !tbaa !10
  store ptr %3, ptr %9, align 8, !tbaa !12
  call void @llvm.lifetime.start.p0(i64 8, ptr %10) #6
  call void @llvm.lifetime.start.p0(i64 8, ptr %11) #6
  call void @llvm.lifetime.start.p0(i64 4, ptr %12) #6
  %14 = load ptr, ptr %9, align 8, !tbaa !12
  %15 = getelementptr inbounds nuw %struct.Lpk_Fun_t_, ptr %14, i32 0, i32 1
  %16 = load i32, ptr %15, align 8
  %17 = lshr i32 %16, 31
  %18 = icmp ne i32 %17, 0
  br i1 %18, label %19, label %24

19:                                               ; preds = %4
  %20 = load ptr, ptr %6, align 8, !tbaa !3
  %21 = getelementptr inbounds nuw %struct.Lpk_Man_t_, ptr %20, i32 0, i32 36
  %22 = load i32, ptr %21, align 4, !tbaa !14
  %23 = add nsw i32 %22, 1
  store i32 %23, ptr %21, align 4, !tbaa !14
  br label %29

24:                                               ; preds = %4
  %25 = load ptr, ptr %6, align 8, !tbaa !3
  %26 = getelementptr inbounds nuw %struct.Lpk_Man_t_, ptr %25, i32 0, i32 37
  %27 = load i32, ptr %26, align 8, !tbaa !24
  %28 = add nsw i32 %27, 1
  store i32 %28, ptr %26, align 8, !tbaa !24
  br label %29

29:                                               ; preds = %24, %19
  %30 = load ptr, ptr %7, align 8, !tbaa !8
  %31 = call ptr @Abc_NtkCreateNode(ptr noundef %30)
  store ptr %31, ptr %11, align 8, !tbaa !25
  store i32 0, ptr %12, align 4, !tbaa !26
  br label %32

32:                                               ; preds = %52, %29
  %33 = load i32, ptr %12, align 4, !tbaa !26
  %34 = load ptr, ptr %9, align 8, !tbaa !12
  %35 = getelementptr inbounds nuw %struct.Lpk_Fun_t_, ptr %34, i32 0, i32 1
  %36 = load i32, ptr %35, align 8
  %37 = lshr i32 %36, 7
  %38 = and i32 %37, 31
  %39 = icmp slt i32 %33, %38
  br i1 %39, label %40, label %55

40:                                               ; preds = %32
  %41 = load ptr, ptr %11, align 8, !tbaa !25
  %42 = load ptr, ptr %8, align 8, !tbaa !10
  %43 = load ptr, ptr %9, align 8, !tbaa !12
  %44 = getelementptr inbounds nuw %struct.Lpk_Fun_t_, ptr %43, i32 0, i32 6
  %45 = load i32, ptr %12, align 4, !tbaa !26
  %46 = sext i32 %45 to i64
  %47 = getelementptr inbounds [16 x i8], ptr %44, i64 0, i64 %46
  %48 = load i8, ptr %47, align 1, !tbaa !27
  %49 = sext i8 %48 to i32
  %50 = call ptr @Vec_PtrEntry(ptr noundef %42, i32 noundef %49)
  %51 = call ptr @Abc_ObjRegular(ptr noundef %50)
  call void @Abc_ObjAddFanin(ptr noundef %41, ptr noundef %51)
  br label %52

52:                                               ; preds = %40
  %53 = load i32, ptr %12, align 4, !tbaa !26
  %54 = add nsw i32 %53, 1
  store i32 %54, ptr %12, align 4, !tbaa !26
  br label %32, !llvm.loop !28

55:                                               ; preds = %32
  %56 = load ptr, ptr %11, align 8, !tbaa !25
  %57 = load ptr, ptr %11, align 8, !tbaa !25
  %58 = call i32 @Abc_ObjLevelNew(ptr noundef %57)
  call void @Abc_ObjSetLevel(ptr noundef %56, i32 noundef %58)
  %59 = load ptr, ptr %9, align 8, !tbaa !12
  %60 = call ptr @Lpk_FunTruth(ptr noundef %59, i32 noundef 0)
  store ptr %60, ptr %10, align 8, !tbaa !30
  %61 = load ptr, ptr %9, align 8, !tbaa !12
  %62 = getelementptr inbounds nuw %struct.Lpk_Fun_t_, ptr %61, i32 0, i32 1
  %63 = load i32, ptr %62, align 8
  %64 = lshr i32 %63, 7
  %65 = and i32 %64, 31
  %66 = icmp eq i32 %65, 0
  br i1 %66, label %67, label %83

67:                                               ; preds = %55
  %68 = load ptr, ptr %7, align 8, !tbaa !8
  %69 = getelementptr inbounds nuw %struct.Abc_Ntk_t_, ptr %68, i32 0, i32 30
  %70 = load ptr, ptr %69, align 8, !tbaa !32
  %71 = call ptr @Hop_ManConst1(ptr noundef %70)
  %72 = load ptr, ptr %10, align 8, !tbaa !30
  %73 = getelementptr inbounds i32, ptr %72, i64 0
  %74 = load i32, ptr %73, align 4, !tbaa !26
  %75 = and i32 %74, 1
  %76 = icmp ne i32 %75, 0
  %77 = xor i1 %76, true
  %78 = zext i1 %77 to i32
  %79 = call ptr @Hop_NotCond(ptr noundef %71, i32 noundef %78)
  %80 = load ptr, ptr %11, align 8, !tbaa !25
  %81 = getelementptr inbounds nuw %struct.Abc_Obj_t_, ptr %80, i32 0, i32 6
  store ptr %79, ptr %81, align 8, !tbaa !27
  %82 = load ptr, ptr %11, align 8, !tbaa !25
  store ptr %82, ptr %5, align 8
  store i32 1, ptr %13, align 4
  br label %117

83:                                               ; preds = %55
  %84 = load ptr, ptr %9, align 8, !tbaa !12
  %85 = getelementptr inbounds nuw %struct.Lpk_Fun_t_, ptr %84, i32 0, i32 1
  %86 = load i32, ptr %85, align 8
  %87 = lshr i32 %86, 7
  %88 = and i32 %87, 31
  %89 = icmp eq i32 %88, 1
  br i1 %89, label %90, label %103

90:                                               ; preds = %83
  %91 = load ptr, ptr %7, align 8, !tbaa !8
  %92 = getelementptr inbounds nuw %struct.Abc_Ntk_t_, ptr %91, i32 0, i32 30
  %93 = load ptr, ptr %92, align 8, !tbaa !32
  %94 = call ptr @Hop_ManPi(ptr noundef %93, i32 noundef 0)
  %95 = load ptr, ptr %10, align 8, !tbaa !30
  %96 = getelementptr inbounds i32, ptr %95, i64 0
  %97 = load i32, ptr %96, align 4, !tbaa !26
  %98 = and i32 %97, 1
  %99 = call ptr @Hop_NotCond(ptr noundef %94, i32 noundef %98)
  %100 = load ptr, ptr %11, align 8, !tbaa !25
  %101 = getelementptr inbounds nuw %struct.Abc_Obj_t_, ptr %100, i32 0, i32 6
  store ptr %99, ptr %101, align 8, !tbaa !27
  %102 = load ptr, ptr %11, align 8, !tbaa !25
  store ptr %102, ptr %5, align 8
  store i32 1, ptr %13, align 4
  br label %117

103:                                              ; preds = %83
  %104 = load ptr, ptr %7, align 8, !tbaa !8
  %105 = getelementptr inbounds nuw %struct.Abc_Ntk_t_, ptr %104, i32 0, i32 30
  %106 = load ptr, ptr %105, align 8, !tbaa !32
  %107 = load ptr, ptr %10, align 8, !tbaa !30
  %108 = load ptr, ptr %9, align 8, !tbaa !12
  %109 = getelementptr inbounds nuw %struct.Lpk_Fun_t_, ptr %108, i32 0, i32 1
  %110 = load i32, ptr %109, align 8
  %111 = lshr i32 %110, 7
  %112 = and i32 %111, 31
  %113 = call ptr @Kit_TruthToHop(ptr noundef %106, ptr noundef %107, i32 noundef %112, ptr noundef null)
  %114 = load ptr, ptr %11, align 8, !tbaa !25
  %115 = getelementptr inbounds nuw %struct.Abc_Obj_t_, ptr %114, i32 0, i32 6
  store ptr %113, ptr %115, align 8, !tbaa !27
  %116 = load ptr, ptr %11, align 8, !tbaa !25
  store ptr %116, ptr %5, align 8
  store i32 1, ptr %13, align 4
  br label %117

117:                                              ; preds = %103, %90, %67
  call void @llvm.lifetime.end.p0(i64 4, ptr %12) #6
  call void @llvm.lifetime.end.p0(i64 8, ptr %11) #6
  call void @llvm.lifetime.end.p0(i64 8, ptr %10) #6
  %118 = load ptr, ptr %5, align 8
  ret ptr %118
}