; Function Attrs: nounwind uwtable
define ptr @Lpk_ImplementFun(ptr noundef captures(none) %0, ptr noundef %1, ptr noundef readonly captures(none) %2, ptr noundef %3) local_unnamed_addr #0 {
  %5 = getelementptr inbounds nuw i8, ptr %3, i64 8
  %6 = load i32, ptr %5, align 8
  %.not = icmp sgt i32 %6, -1
  br i1 %.not, label %11, label %7

7:                                                ; preds = %4
  %8 = getelementptr inbounds nuw i8, ptr %0, i64 8241812
  %9 = load i32, ptr %8, align 4, !tbaa !3
  %10 = add nsw i32 %9, 1
  store i32 %10, ptr %8, align 4, !tbaa !3
  br label %15

11:                                               ; preds = %4
  %12 = getelementptr inbounds nuw i8, ptr %0, i64 8241816
  %13 = load i32, ptr %12, align 8, !tbaa !18
  %14 = add nsw i32 %13, 1
  store i32 %14, ptr %12, align 8, !tbaa !18
  br label %15

15:                                               ; preds = %11, %7
  %16 = tail call ptr @Abc_NtkCreateObj(ptr noundef %1, i32 noundef 7) #6
  %17 = load i32, ptr %5, align 8
  %18 = and i32 %17, 3968
  %.not35 = icmp eq i32 %18, 0
  br i1 %.not35, label %._crit_edge, label %.lr.ph

.lr.ph:                                           ; preds = %15
  %19 = getelementptr inbounds nuw i8, ptr %3, i64 212
  %20 = getelementptr i8, ptr %2, i64 8
  br label %21

21:                                               ; preds = %.lr.ph, %21
  %indvars.iv = phi i64 [ 0, %.lr.ph ], [ %indvars.iv.next, %21 ]
  %22 = getelementptr inbounds nuw [16 x i8], ptr %19, i64 0, i64 %indvars.iv
  %23 = load i8, ptr %22, align 1, !tbaa !19
  %.val = load ptr, ptr %20, align 8, !tbaa !20
  %24 = sext i8 %23 to i64
  %25 = getelementptr inbounds ptr, ptr %.val, i64 %24
  %26 = load ptr, ptr %25, align 8, !tbaa !22
  %27 = ptrtoint ptr %26 to i64
  %28 = and i64 %27, -2
  %29 = inttoptr i64 %28 to ptr
  tail call void @Abc_ObjAddFanin(ptr noundef %16, ptr noundef %29) #6
  %indvars.iv.next = add nuw nsw i64 %indvars.iv, 1
  %30 = load i32, ptr %5, align 8
  %31 = lshr i32 %30, 7
  %32 = and i32 %31, 31
  %33 = zext nneg i32 %32 to i64
  %34 = icmp samesign ult i64 %indvars.iv.next, %33
  br i1 %34, label %21, label %._crit_edge, !llvm.loop !23

._crit_edge:                                      ; preds = %21, %15
  %35 = tail call i32 @Abc_ObjLevelNew(ptr noundef %16) #6
  %36 = getelementptr inbounds nuw i8, ptr %16, i64 20
  %37 = load i32, ptr %36, align 4
  %38 = shl i32 %35, 12
  %39 = and i32 %37, 4095
  %40 = or disjoint i32 %39, %38
  store i32 %40, ptr %36, align 4
  %41 = getelementptr inbounds nuw i8, ptr %3, i64 228
  %42 = load i32, ptr %5, align 8
  %43 = lshr i32 %42, 7
  %44 = and i32 %43, 31
  %45 = getelementptr inbounds nuw i8, ptr %1, i64 256
  %46 = load ptr, ptr %45, align 8, !tbaa !25
  switch i32 %44, label %64 [
    i32 0, label %47
    i32 1, label %56
  ]

47:                                               ; preds = %._crit_edge
  %48 = getelementptr i8, ptr %46, i64 24
  %.val32 = load ptr, ptr %48, align 8, !tbaa !39
  %49 = load i32, ptr %41, align 4, !tbaa !44
  %50 = and i32 %49, 1
  %51 = xor i32 %50, 1
  %52 = ptrtoint ptr %.val32 to i64
  %53 = zext nneg i32 %51 to i64
  %54 = xor i64 %53, %52
  %55 = inttoptr i64 %54 to ptr
  br label %66

56:                                               ; preds = %._crit_edge
  %.val33 = load ptr, ptr %46, align 8, !tbaa !45
  %57 = getelementptr i8, ptr %.val33, i64 8
  %.val33.val = load ptr, ptr %57, align 8, !tbaa !20
  %.val33.val.val = load ptr, ptr %.val33.val, align 8, !tbaa !22
  %58 = load i32, ptr %41, align 4, !tbaa !44
  %59 = and i32 %58, 1
  %60 = ptrtoint ptr %.val33.val.val to i64
  %61 = zext nneg i32 %59 to i64
  %62 = xor i64 %61, %60
  %63 = inttoptr i64 %62 to ptr
  br label %66

64:                                               ; preds = %._crit_edge
  %65 = tail call ptr @Kit_TruthToHop(ptr noundef %46, ptr noundef nonnull %41, i32 noundef %44, ptr noundef null) #6
  br label %66

66:                                               ; preds = %64, %56, %47
  %.sink = phi ptr [ %65, %64 ], [ %63, %56 ], [ %55, %47 ]
  %67 = getelementptr inbounds nuw i8, ptr %16, i64 56
  store ptr %.sink, ptr %67, align 8, !tbaa !19
  ret ptr %16
}